; Function Attrs: mustprogress nounwind uwtable
define internal fastcc void @_ZNSt6vectorIN4i18n12phonenumbers12_GLOBAL__N_110NumberTestESaIS3_EED2Ev(ptr nocapture noundef nonnull readonly align 8 dereferenceable(24) %0) unnamed_addr #6 align 2 personality ptr @__gxx_personality_v0 {
  %2 = load ptr, ptr %0, align 8
  %3 = getelementptr inbounds i8, ptr %0, i64 8
  %4 = load ptr, ptr %3, align 8
  %.not4.i.i.i = icmp eq ptr %2, %4
  br i1 %.not4.i.i.i, label %_ZSt8_DestroyIPN4i18n12phonenumbers12_GLOBAL__N_110NumberTestES3_EvT_S5_RSaIT0_E.exit, label %.lr.ph.i.i.i

.lr.ph.i.i.i:                                     ; preds = %1, %.lr.ph.i.i.i
  %.05.i.i.i = phi ptr [ %6, %.lr.ph.i.i.i ], [ %2, %1 ]
  %5 = getelementptr inbounds i8, ptr %.05.i.i.i, i64 32
  tail call void @_ZNSt7__cxx1112basic_stringIcSt11char_traitsIcESaIcEED1Ev(ptr noundef nonnull align 8 dereferenceable(32) %5) #16
  tail call void @_ZNSt7__cxx1112basic_stringIcSt11char_traitsIcESaIcEED1Ev(ptr noundef nonnull align 8 dereferenceable(32) %.05.i.i.i) #16
  %6 = getelementptr inbounds i8, ptr %.05.i.i.i, i64 64
  %.not.i.i.i = icmp eq ptr %6, %4
  br i1 %.not.i.i.i, label %_ZSt8_DestroyIPN4i18n12phonenumbers12_GLOBAL__N_110NumberTestES3_EvT_S5_RSaIT0_E.exitthread-pre-split, label %.lr.ph.i.i.i, !llvm.loop !21

_ZSt8_DestroyIPN4i18n12phonenumbers12_GLOBAL__N_110NumberTestES3_EvT_S5_RSaIT0_E.exitthread-pre-split: ; preds = %.lr.ph.i.i.i
  %.val.pr = load ptr, ptr %0, align 8
  br label %_ZSt8_DestroyIPN4i18n12phonenumbers12_GLOBAL__N_110NumberTestES3_EvT_S5_RSaIT0_E.exit

_ZSt8_DestroyIPN4i18n12phonenumbers12_GLOBAL__N_110NumberTestES3_EvT_S5_RSaIT0_E.exit: ; preds = %_ZSt8_DestroyIPN4i18n12phonenumbers12_GLOBAL__N_110NumberTestES3_EvT_S5_RSaIT0_E.exitthread-pre-split, %1
  %.val = phi ptr [ %.val.pr, %_ZSt8_DestroyIPN4i18n12phonenumbers12_GLOBAL__N_110NumberTestES3_EvT_S5_RSaIT0_E.exitthread-pre-split ], [ %2, %1 ]
  %.not.i.i = icmp eq ptr %.val, null
  br i1 %.not.i.i, label %_ZNSt12_Vector_baseIN4i18n12phonenumbers12_GLOBAL__N_110NumberTestESaIS3_EED2Ev.exit, label %7

7:                                                ; preds = %_ZSt8_DestroyIPN4i18n12phonenumbers12_GLOBAL__N_110NumberTestES3_EvT_S5_RSaIT0_E.exit
  tail call void @_ZdlPv(ptr noundef nonnull %.val) #17
  br label %_ZNSt12_Vector_baseIN4i18n12phonenumbers12_GLOBAL__N_110NumberTestESaIS3_EED2Ev.exit

_ZNSt12_Vector_baseIN4i18n12phonenumbers12_GLOBAL__N_110NumberTestESaIS3_EED2Ev.exit: ; preds = %_ZSt8_DestroyIPN4i18n12phonenumbers12_GLOBAL__N_110NumberTestES3_EvT_S5_RSaIT0_E.exit, %7
  ret void
}